target datalayout = "e-m:e-p270:32:32-p271:32:32-p272:64:64-i64:64-i128:128-f80:128-n8:16:32:64-S128"
target triple = "x86_64-pc-linux-gnu"

; Function Attrs: mustprogress nounwind uwtable
define void @_ZN6duckdb9NextMonthERiS0_(ptr noundef nonnull align 4 dereferenceable(4) %0, ptr noundef nonnull align 4 dereferenceable(4) %1) #4 {
  %3 = alloca ptr, align 8
  %4 = alloca ptr, align 8
  store ptr %0, ptr %3, align 8, !tbaa !108
  store ptr %1, ptr %4, align 8, !tbaa !108
  %5 = load ptr, ptr %4, align 8, !tbaa !108
  %6 = load i32, ptr %5, align 4, !tbaa !110
  %7 = add nsw i32 %6, 1
  store i32 %7, ptr %5, align 4, !tbaa !110
  %8 = load ptr, ptr %4, align 8, !tbaa !108
  %9 = load i32, ptr %8, align 4, !tbaa !110
  %10 = icmp eq i32 %9, 13
  br i1 %10, label %11, label %16

11:                                               ; preds = %2
  %12 = load ptr, ptr %3, align 8, !tbaa !108
  %13 = load i32, ptr %12, align 4, !tbaa !110
  %14 = add nsw i32 %13, 1
  store i32 %14, ptr %12, align 4, !tbaa !110
  %15 = load ptr, ptr %4, align 8, !tbaa !108
  store i32 1, ptr %15, align 4, !tbaa !110
  br label %16

16:                                               ; preds = %11, %2
  ret void
}