; Function Attrs: mustprogress nofree norecurse nosync nounwind willreturn memory(argmem: readwrite) uwtable
define void @_ZN6duckdb9NextMonthERiS0_(ptr noundef nonnull align 4 captures(none) dereferenceable(4) %0, ptr noundef nonnull align 4 captures(none) dereferenceable(4) %1) local_unnamed_addr #9 {
  %3 = load i32, ptr %1, align 4, !tbaa !86
  %4 = add nsw i32 %3, 1
  store i32 %4, ptr %1, align 4, !tbaa !86
  %5 = icmp eq i32 %4, 13
  br i1 %5, label %6, label %9

6:                                                ; preds = %2
  %7 = load i32, ptr %0, align 4, !tbaa !86
  %8 = add nsw i32 %7, 1
  store i32 %8, ptr %0, align 4, !tbaa !86
  store i32 1, ptr %1, align 4, !tbaa !86
  br label %9

9:                                                ; preds = %6, %2
  ret void
}